target datalayout = "e-m:e-p270:32:32-p271:32:32-p272:64:64-i64:64-i128:128-f80:128-n8:16:32:64-S128"
target triple = "x86_64-pc-linux-gnu"

%"class.std::__cxx11::basic_string" = type { %"struct.std::__cxx11::basic_string<char>::_Alloc_hider", i64, %union.anon }
%"struct.std::__cxx11::basic_string<char>::_Alloc_hider" = type { ptr }
%union.anon = type { i64, [8 x i8] }
%"class.std::shared_ptr" = type { %"class.std::__shared_ptr" }
%"class.std::__shared_ptr" = type { ptr, %"class.std::__shared_count" }
%"class.std::__shared_count" = type { ptr }
%"class.open_spiel::spades::SpadesState" = type <{ %"class.open_spiel::State.base", i8, [3 x i8], i32, i32, i32, i32, %"struct.std::array", i8, [3 x i8], %"struct.std::array.9", i32, i32, i32, %"struct.std::array.9", %"struct.std::array.10", [4 x i8], %"class.std::vector.11", %"struct.std::array.16", %"struct.std::array.18", i8, [7 x i8] }>
%"class.open_spiel::State.base" = type <{ ptr, %"class.std::shared_ptr", i32, i32, %"class.std::vector", i32 }>
%"class.std::vector" = type { %"struct.std::_Vector_base" }
%"struct.std::_Vector_base" = type { %"struct.std::_Vector_base<open_spiel::State::PlayerAction, std::allocator<open_spiel::State::PlayerAction>>::_Vector_impl" }
%"struct.std::_Vector_base<open_spiel::State::PlayerAction, std::allocator<open_spiel::State::PlayerAction>>::_Vector_impl" = type { %"struct.std::_Vector_base<open_spiel::State::PlayerAction, std::allocator<open_spiel::State::PlayerAction>>::_Vector_impl_data" }
%"struct.std::_Vector_base<open_spiel::State::PlayerAction, std::allocator<open_spiel::State::PlayerAction>>::_Vector_impl_data" = type { ptr, ptr, ptr }
%"struct.std::array" = type { [2 x i32] }
%"struct.std::array.9" = type { [4 x i32] }
%"struct.std::array.10" = type { [13 x %"class.open_spiel::spades::Trick"] }
%"class.open_spiel::spades::Trick" = type { i32, i32, i32, i32, i32 }
%"class.std::vector.11" = type { %"struct.std::_Vector_base.12" }
%"struct.std::_Vector_base.12" = type { %"struct.std::_Vector_base<double, std::allocator<double>>::_Vector_impl" }
%"struct.std::_Vector_base<double, std::allocator<double>>::_Vector_impl" = type { %"struct.std::_Vector_base<double, std::allocator<double>>::_Vector_impl_data" }
%"struct.std::_Vector_base<double, std::allocator<double>>::_Vector_impl_data" = type { ptr, ptr, ptr }
%"struct.std::array.16" = type { [52 x %"class.absl::debian2::optional"] }
%"class.absl::debian2::optional" = type { %"class.absl::debian2::optional_internal::optional_data" }
%"class.absl::debian2::optional_internal::optional_data" = type { %"class.absl::debian2::optional_internal::optional_data_base" }
%"class.absl::debian2::optional_internal::optional_data_base" = type { %"class.absl::debian2::optional_internal::optional_data_dtor_base" }
%"class.absl::debian2::optional_internal::optional_data_dtor_base" = type { i8, %union.anon.17 }
%union.anon.17 = type { i32 }
%"struct.std::array.18" = type { [56 x i8] }

@.str.11 = private unnamed_addr constant [132 x i8] c"generated/home/dtcxzyw/WorkSpace/Projects/compilers/llvm-opt-benchmark/bench/openspiel/open_spiel/open_spiel/games/spades/spades.cc\00", align 1
@.str.12 = private unnamed_addr constant [2 x i8] c":\00", align 1
@.str.35 = private unnamed_addr constant [13 x i8] c" CHECK_TRUE(\00", align 1
@.str.37 = private unnamed_addr constant [2 x i8] c")\00", align 1
@.str.54 = private unnamed_addr constant [53 x i8] c"phase_ == Phase::kPlay || phase_ == Phase::kGameOver\00", align 1

; Function Attrs: mustprogress nounwind uwtable
define linkonce_odr noundef nonnull align 4 dereferenceable(4) ptr @_ZNSt14__array_traitsIiLm4EE6_S_refERA4_Kim(ptr noundef nonnull align 4 dereferenceable(16) %0, i64 noundef %1) #5 comdat align 2 {
  %3 = alloca ptr, align 8
  %4 = alloca i64, align 8
  store ptr %0, ptr %3, align 8
  store i64 %1, ptr %4, align 8
  %5 = load ptr, ptr %3, align 8
  %6 = load i64, ptr %4, align 8
  %7 = getelementptr inbounds [4 x i32], ptr %5, i64 0, i64 %6
  ret ptr %7
}

; Function Attrs: mustprogress nounwind uwtable
define linkonce_odr noundef nonnull align 4 dereferenceable(4) ptr @_ZNSt5arrayIiLm4EEixEm(ptr noundef nonnull align 4 dereferenceable(16) %0, i64 noundef %1) #5 comdat align 2 {
  %3 = alloca ptr, align 8
  %4 = alloca i64, align 8
  store ptr %0, ptr %3, align 8
  store i64 %1, ptr %4, align 8
  %5 = load ptr, ptr %3, align 8
  %6 = getelementptr inbounds nuw %"struct.std::array.9", ptr %5, i32 0, i32 0
  %7 = load i64, ptr %4, align 8
  %8 = call noundef nonnull align 4 dereferenceable(4) ptr @_ZNSt14__array_traitsIiLm4EE6_S_refERA4_Kim(ptr noundef nonnull align 4 dereferenceable(16) %6, i64 noundef %7) #3
  ret ptr %8
}

; Function Attrs: mustprogress nounwind uwtable
define linkonce_odr noundef nonnull align 4 dereferenceable(4) ptr @_ZNKSt5arrayIiLm4EEixEm(ptr noundef nonnull align 4 dereferenceable(16) %0, i64 noundef %1) #5 comdat align 2 {
  %3 = alloca ptr, align 8
  %4 = alloca i64, align 8
  store ptr %0, ptr %3, align 8
  store i64 %1, ptr %4, align 8
  %5 = load ptr, ptr %3, align 8
  %6 = getelementptr inbounds nuw %"struct.std::array.9", ptr %5, i32 0, i32 0
  %7 = load i64, ptr %4, align 8
  %8 = call noundef nonnull align 4 dereferenceable(4) ptr @_ZNSt14__array_traitsIiLm4EE6_S_refERA4_Kim(ptr noundef nonnull align 4 dereferenceable(16) %6, i64 noundef %7) #3
  ret ptr %8
}

; Function Attrs: mustprogress uwtable
define { i64, i64 } @_ZNK10open_spiel6spades11SpadesState15ContractIndexesEv(ptr noundef nonnull align 8 dereferenceable(897) %0) #4 align 2 personality ptr @__gxx_personality_v0 {
  %2 = alloca %"struct.std::array.9", align 4
  %3 = alloca ptr, align 8
  %4 = alloca %"class.std::__cxx11::basic_string", align 8
  %5 = alloca i32, align 4
  %6 = alloca ptr, align 8
  %7 = alloca i32, align 4
  %8 = alloca i32, align 4
  store ptr %0, ptr %3, align 8
  %9 = load ptr, ptr %3, align 8
  br label %10

10:                                               ; preds = %1
  %11 = getelementptr inbounds nuw %"class.open_spiel::spades::SpadesState", ptr %9, i32 0, i32 13
  %12 = load i32, ptr %11, align 4
  %13 = icmp eq i32 %12, 2
  br i1 %13, label %18, label %14

14:                                               ; preds = %10
  %15 = getelementptr inbounds nuw %"class.open_spiel::spades::SpadesState", ptr %9, i32 0, i32 13
  %16 = load i32, ptr %15, align 4
  %17 = icmp eq i32 %16, 3
  br label %18

18:                                               ; preds = %14, %10
  %19 = phi i1 [ true, %10 ], [ %17, %14 ]
  %20 = xor i1 %19, true
  br i1 %20, label %21, label %27

21:                                               ; preds = %18
  store i32 606, ptr %5, align 4
  call void @_ZN10open_spiel8internal11SpielStrCatIJRA132_KcRA2_S2_iRA13_S2_RA53_S2_S6_EEENSt7__cxx1112basic_stringIcSt11char_traitsIcESaIcEEEDpOT_(ptr dead_on_unwind writable sret(%"class.std::__cxx11::basic_string") align 8 %4, ptr noundef nonnull align 1 dereferenceable(132) @.str.11, ptr noundef nonnull align 1 dereferenceable(2) @.str.12, ptr noundef nonnull align 4 dereferenceable(4) %5, ptr noundef nonnull align 1 dereferenceable(13) @.str.35, ptr noundef nonnull align 1 dereferenceable(53) @.str.54, ptr noundef nonnull align 1 dereferenceable(2) @.str.37)
  invoke void @_ZN10open_spiel15SpielFatalErrorERKNSt7__cxx1112basic_stringIcSt11char_traitsIcESaIcEEE(ptr noundef nonnull align 8 dereferenceable(32) %4) #15
          to label %22 unwind label %23

22:                                               ; preds = %21
  unreachable

23:                                               ; preds = %21
  %24 = landingpad { ptr, i32 }
          cleanup
  %25 = extractvalue { ptr, i32 } %24, 0
  store ptr %25, ptr %6, align 8
  %26 = extractvalue { ptr, i32 } %24, 1
  store i32 %26, ptr %7, align 4
  call void @_ZNSt7__cxx1112basic_stringIcSt11char_traitsIcESaIcEED1Ev(ptr noundef nonnull align 8 dereferenceable(32) %4) #3
  br label %49

27:                                               ; preds = %18
  store i32 0, ptr %8, align 4
  br label %28

28:                                               ; preds = %43, %27
  %29 = load i32, ptr %8, align 4
  %30 = icmp slt i32 %29, 4
  br i1 %30, label %31, label %46

31:                                               ; preds = %28
  %32 = load i32, ptr %8, align 4
  %33 = mul nsw i32 %32, 14
  %34 = getelementptr inbounds nuw %"class.open_spiel::spades::SpadesState", ptr %9, i32 0, i32 14
  %35 = load i32, ptr %8, align 4
  %36 = sext i32 %35 to i64
  %37 = call noundef nonnull align 4 dereferenceable(4) ptr @_ZNKSt5arrayIiLm4EEixEm(ptr noundef nonnull align 4 dereferenceable(16) %34, i64 noundef %36) #3
  %38 = load i32, ptr %37, align 4
  %39 = add nsw i32 %33, %38
  %40 = load i32, ptr %8, align 4
  %41 = sext i32 %40 to i64
  %42 = call noundef nonnull align 4 dereferenceable(4) ptr @_ZNSt5arrayIiLm4EEixEm(ptr noundef nonnull align 4 dereferenceable(16) %2, i64 noundef %41) #3
  store i32 %39, ptr %42, align 4
  br label %43

43:                                               ; preds = %31
  %44 = load i32, ptr %8, align 4
  %45 = add nsw i32 %44, 1
  store i32 %45, ptr %8, align 4
  br label %28, !llvm.loop !35

46:                                               ; preds = %28
  %47 = getelementptr inbounds nuw %"struct.std::array.9", ptr %2, i32 0, i32 0
  %48 = load { i64, i64 }, ptr %47, align 4
  ret { i64, i64 } %48

49:                                               ; preds = %23
  %50 = load ptr, ptr %6, align 8
  %51 = load i32, ptr %7, align 4
  %52 = insertvalue { ptr, i32 } poison, ptr %50, 0
  %53 = insertvalue { ptr, i32 } %52, i32 %51, 1
  resume { ptr, i32 } %53
}