; Function Attrs: mustprogress uwtable
define { i64, i64 } @_ZNK10open_spiel6spades11SpadesState15ContractIndexesEv(ptr nocapture noundef nonnull readonly align 8 dereferenceable(897) %0) local_unnamed_addr #3 align 2 personality ptr @__gxx_personality_v0 {
  %2 = alloca %"struct.std::array.9", align 8
  %3 = alloca %"class.std::__cxx11::basic_string", align 8
  %4 = alloca i32, align 4
  %5 = getelementptr inbounds nuw i8, ptr %0, i64 116
  %6 = load i32, ptr %5, align 4
  %7 = add i32 %6, -4
  %spec.select = icmp ult i32 %7, -2
  br i1 %spec.select, label %9, label %.preheader

.preheader:                                       ; preds = %1
  %8 = getelementptr inbounds nuw i8, ptr %0, i64 120
  br label %13

9:                                                ; preds = %1
  store i32 606, ptr %4, align 4
  call void @_ZN10open_spiel8internal11SpielStrCatIJRA132_KcRA2_S2_iRA13_S2_RA53_S2_S6_EEENSt7__cxx1112basic_stringIcSt11char_traitsIcESaIcEEEDpOT_(ptr dead_on_unwind nonnull writable sret(%"class.std::__cxx11::basic_string") align 8 %3, ptr noundef nonnull align 1 dereferenceable(132) @.str.11, ptr noundef nonnull align 1 dereferenceable(2) @.str.12, ptr noundef nonnull align 4 dereferenceable(4) %4, ptr noundef nonnull align 1 dereferenceable(13) @.str.35, ptr noundef nonnull align 1 dereferenceable(53) @.str.54, ptr noundef nonnull align 1 dereferenceable(2) @.str.37)
  invoke void @_ZN10open_spiel15SpielFatalErrorERKNSt7__cxx1112basic_stringIcSt11char_traitsIcESaIcEEE(ptr noundef nonnull align 8 dereferenceable(32) %3) #24
          to label %10 unwind label %11

10:                                               ; preds = %9
  unreachable

11:                                               ; preds = %9
  %12 = landingpad { ptr, i32 }
          cleanup
  call void @_ZNSt7__cxx1112basic_stringIcSt11char_traitsIcESaIcEED1Ev(ptr noundef nonnull align 8 dereferenceable(32) %3) #25
  resume { ptr, i32 } %12

13:                                               ; preds = %.preheader, %13
  %indvars.iv = phi i64 [ 0, %.preheader ], [ %indvars.iv.next, %13 ]
  %14 = getelementptr inbounds [4 x i32], ptr %8, i64 0, i64 %indvars.iv
  %15 = load i32, ptr %14, align 4
  %16 = trunc i64 %indvars.iv to i32
  %17 = mul i32 %16, 14
  %18 = add nsw i32 %15, %17
  %19 = getelementptr inbounds [4 x i32], ptr %2, i64 0, i64 %indvars.iv
  store i32 %18, ptr %19, align 4
  %indvars.iv.next = add nuw nsw i64 %indvars.iv, 1
  %exitcond.not = icmp eq i64 %indvars.iv.next, 4
  br i1 %exitcond.not, label %20, label %13, !llvm.loop !70

20:                                               ; preds = %13
  %.fca.0.load = load i64, ptr %2, align 8
  %.fca.0.insert = insertvalue { i64, i64 } poison, i64 %.fca.0.load, 0
  %.fca.1.gep = getelementptr inbounds i8, ptr %2, i64 8
  %.fca.1.load = load i64, ptr %.fca.1.gep, align 8
  %.fca.1.insert = insertvalue { i64, i64 } %.fca.0.insert, i64 %.fca.1.load, 1
  ret { i64, i64 } %.fca.1.insert
}